target datalayout = "e-m:e-p270:32:32-p271:32:32-p272:64:64-i64:64-i128:128-f80:128-n8:16:32:64-S128"
target triple = "x86_64-pc-linux-gnu"

%struct.SwsFilterDescriptor = type { ptr, ptr, i32, ptr, ptr }
%struct.SwsSlice = type { i32, i32, i32, i32, i32, i32, [4 x %struct.SwsPlane] }
%struct.SwsPlane = type { i32, i32, i32, ptr, ptr }
%struct.SwsInternal = type { %struct.SwsContext, ptr, ptr, ptr, ptr, i32, [2 x ptr], i32, i32, ptr, i32, i32, i32, i32, i32, i32, i32, i32, i32, i32, i32, i32, i32, i32, i32, i32, i32, i32, ptr, ptr, %struct.RangeList, [3 x ptr], [2 x [4 x i32]], [2 x [4 x ptr]], i32, double, i32, ptr, ptr, i32, [2 x i32], i32, ptr, ptr, [256 x i32], [256 x i32], [256 x float], i32, i32, ptr, i32, ptr, ptr, ptr, ptr, ptr, ptr, ptr, ptr, i32, i32, i32, i32, i32, i32, ptr, ptr, i32, i32, i32, ptr, [8 x i8], [1280 x i32], [1280 x ptr], [1280 x ptr], [1280 x ptr], [176 x i32], [4 x ptr], i32, i32, i32, [4 x i32], [4 x i32], i32, i32, i32, i32, i32, i32, i32, i32, i32, i32, i64, i64, i64, i64, i64, i64, i64, i64, i64, i64, i64, [1024 x i32], [1024 x i32], i32, i64, i64, i64, i64, i64, [1024 x i32], i64, i64, [8 x i16], [8 x i32], ptr, ptr, i32, ptr, ptr, ptr, ptr, [3 x [4 x i16]], [3 x [4 x i16]], ptr, ptr, ptr, ptr, ptr, ptr, ptr, ptr, ptr, ptr, ptr, ptr, ptr, ptr, ptr, ptr, ptr, ptr, ptr, ptr, i32, i32, i64, i64, i32, ptr, i32, ptr, i32, i32, i32, i32, i32, ptr }
%struct.SwsContext = type { ptr, ptr, i32, [2 x double], i32, i32, i32, i32, i32, i32, i32, i32, i32, i32, i32, i32, i32, i32, i32, i32, i32 }
%struct.RangeList = type { ptr, i32, i32 }
%struct.FilterContext = type { ptr, ptr, i32, i32 }

; Function Attrs: nounwind uwtable
define internal i32 @lum_h_scale(ptr noundef %0, ptr noundef %1, i32 noundef %2, i32 noundef %3) #0 {
  %5 = alloca ptr, align 8
  %6 = alloca ptr, align 8
  %7 = alloca i32, align 4
  %8 = alloca i32, align 4
  %9 = alloca ptr, align 8
  %10 = alloca i32, align 4
  %11 = alloca i32, align 4
  %12 = alloca i32, align 4
  %13 = alloca i32, align 4
  %14 = alloca ptr, align 8
  %15 = alloca ptr, align 8
  %16 = alloca i32, align 4
  %17 = alloca i32, align 4
  store ptr %0, ptr %5, align 8, !tbaa !33
  store ptr %1, ptr %6, align 8, !tbaa !4
  store i32 %2, ptr %7, align 4, !tbaa !26
  store i32 %3, ptr %8, align 4, !tbaa !26
  call void @llvm.lifetime.start.p0(i64 8, ptr %9) #6
  %18 = load ptr, ptr %6, align 8, !tbaa !4
  %19 = getelementptr inbounds nuw %struct.SwsFilterDescriptor, ptr %18, i32 0, i32 3
  %20 = load ptr, ptr %19, align 8, !tbaa !17
  store ptr %20, ptr %9, align 8, !tbaa !64
  call void @llvm.lifetime.start.p0(i64 4, ptr %10) #6
  %21 = load ptr, ptr %6, align 8, !tbaa !4
  %22 = getelementptr inbounds nuw %struct.SwsFilterDescriptor, ptr %21, i32 0, i32 0
  %23 = load ptr, ptr %22, align 8, !tbaa !23
  %24 = getelementptr inbounds nuw %struct.SwsSlice, ptr %23, i32 0, i32 0
  %25 = load i32, ptr %24, align 8, !tbaa !35
  store i32 %25, ptr %10, align 4, !tbaa !26
  call void @llvm.lifetime.start.p0(i64 4, ptr %11) #6
  %26 = load ptr, ptr %6, align 8, !tbaa !4
  %27 = getelementptr inbounds nuw %struct.SwsFilterDescriptor, ptr %26, i32 0, i32 1
  %28 = load ptr, ptr %27, align 8, !tbaa !24
  %29 = getelementptr inbounds nuw %struct.SwsSlice, ptr %28, i32 0, i32 0
  %30 = load i32, ptr %29, align 8, !tbaa !35
  store i32 %30, ptr %11, align 4, !tbaa !26
  call void @llvm.lifetime.start.p0(i64 4, ptr %12) #6
  %31 = load ptr, ptr %9, align 8, !tbaa !64
  %32 = getelementptr inbounds nuw %struct.FilterContext, ptr %31, i32 0, i32 3
  %33 = load i32, ptr %32, align 4, !tbaa !70
  store i32 %33, ptr %12, align 4, !tbaa !26
  call void @llvm.lifetime.start.p0(i64 4, ptr %13) #6
  store i32 0, ptr %13, align 4, !tbaa !26
  br label %34

34:                                               ; preds = %250, %4
  %35 = load i32, ptr %13, align 4, !tbaa !26
  %36 = load i32, ptr %8, align 4, !tbaa !26
  %37 = icmp slt i32 %35, %36
  br i1 %37, label %38, label %253

38:                                               ; preds = %34
  call void @llvm.lifetime.start.p0(i64 8, ptr %14) #6
  %39 = load ptr, ptr %6, align 8, !tbaa !4
  %40 = getelementptr inbounds nuw %struct.SwsFilterDescriptor, ptr %39, i32 0, i32 0
  %41 = load ptr, ptr %40, align 8, !tbaa !23
  %42 = getelementptr inbounds nuw %struct.SwsSlice, ptr %41, i32 0, i32 6
  %43 = getelementptr inbounds [4 x %struct.SwsPlane], ptr %42, i64 0, i64 0
  %44 = getelementptr inbounds nuw %struct.SwsPlane, ptr %43, i32 0, i32 3
  %45 = load ptr, ptr %44, align 8, !tbaa !42
  store ptr %45, ptr %14, align 8, !tbaa !71
  call void @llvm.lifetime.start.p0(i64 8, ptr %15) #6
  %46 = load ptr, ptr %6, align 8, !tbaa !4
  %47 = getelementptr inbounds nuw %struct.SwsFilterDescriptor, ptr %46, i32 0, i32 1
  %48 = load ptr, ptr %47, align 8, !tbaa !24
  %49 = getelementptr inbounds nuw %struct.SwsSlice, ptr %48, i32 0, i32 6
  %50 = getelementptr inbounds [4 x %struct.SwsPlane], ptr %49, i64 0, i64 0
  %51 = getelementptr inbounds nuw %struct.SwsPlane, ptr %50, i32 0, i32 3
  %52 = load ptr, ptr %51, align 8, !tbaa !42
  store ptr %52, ptr %15, align 8, !tbaa !71
  call void @llvm.lifetime.start.p0(i64 4, ptr %16) #6
  %53 = load i32, ptr %7, align 4, !tbaa !26
  %54 = load i32, ptr %13, align 4, !tbaa !26
  %55 = add nsw i32 %53, %54
  %56 = load ptr, ptr %6, align 8, !tbaa !4
  %57 = getelementptr inbounds nuw %struct.SwsFilterDescriptor, ptr %56, i32 0, i32 0
  %58 = load ptr, ptr %57, align 8, !tbaa !23
  %59 = getelementptr inbounds nuw %struct.SwsSlice, ptr %58, i32 0, i32 6
  %60 = getelementptr inbounds [4 x %struct.SwsPlane], ptr %59, i64 0, i64 0
  %61 = getelementptr inbounds nuw %struct.SwsPlane, ptr %60, i32 0, i32 1
  %62 = load i32, ptr %61, align 4, !tbaa !36
  %63 = sub nsw i32 %55, %62
  store i32 %63, ptr %16, align 4, !tbaa !26
  call void @llvm.lifetime.start.p0(i64 4, ptr %17) #6
  %64 = load i32, ptr %7, align 4, !tbaa !26
  %65 = load i32, ptr %13, align 4, !tbaa !26
  %66 = add nsw i32 %64, %65
  %67 = load ptr, ptr %6, align 8, !tbaa !4
  %68 = getelementptr inbounds nuw %struct.SwsFilterDescriptor, ptr %67, i32 0, i32 1
  %69 = load ptr, ptr %68, align 8, !tbaa !24
  %70 = getelementptr inbounds nuw %struct.SwsSlice, ptr %69, i32 0, i32 6
  %71 = getelementptr inbounds [4 x %struct.SwsPlane], ptr %70, i64 0, i64 0
  %72 = getelementptr inbounds nuw %struct.SwsPlane, ptr %71, i32 0, i32 1
  %73 = load i32, ptr %72, align 4, !tbaa !36
  %74 = sub nsw i32 %66, %73
  store i32 %74, ptr %17, align 4, !tbaa !26
  %75 = load ptr, ptr %5, align 8, !tbaa !33
  %76 = getelementptr inbounds nuw %struct.SwsInternal, ptr %75, i32 0, i32 140
  %77 = load ptr, ptr %76, align 8, !tbaa !72
  %78 = icmp ne ptr %77, null
  br i1 %78, label %79, label %97

79:                                               ; preds = %38
  %80 = load ptr, ptr %5, align 8, !tbaa !33
  %81 = getelementptr inbounds nuw %struct.SwsInternal, ptr %80, i32 0, i32 140
  %82 = load ptr, ptr %81, align 8, !tbaa !72
  %83 = load ptr, ptr %5, align 8, !tbaa !33
  %84 = load ptr, ptr %15, align 8, !tbaa !71
  %85 = load i32, ptr %17, align 4, !tbaa !26
  %86 = sext i32 %85 to i64
  %87 = getelementptr inbounds ptr, ptr %84, i64 %86
  %88 = load ptr, ptr %87, align 8, !tbaa !43
  %89 = load i32, ptr %11, align 4, !tbaa !26
  %90 = load ptr, ptr %14, align 8, !tbaa !71
  %91 = load i32, ptr %16, align 4, !tbaa !26
  %92 = sext i32 %91 to i64
  %93 = getelementptr inbounds ptr, ptr %90, i64 %92
  %94 = load ptr, ptr %93, align 8, !tbaa !43
  %95 = load i32, ptr %10, align 4, !tbaa !26
  %96 = load i32, ptr %12, align 4, !tbaa !26
  call void %82(ptr noundef %83, ptr noundef %88, i32 noundef %89, ptr noundef %94, i32 noundef %95, i32 noundef %96)
  br label %122

97:                                               ; preds = %38
  %98 = load ptr, ptr %5, align 8, !tbaa !33
  %99 = getelementptr inbounds nuw %struct.SwsInternal, ptr %98, i32 0, i32 142
  %100 = load ptr, ptr %99, align 8, !tbaa !73
  %101 = load ptr, ptr %5, align 8, !tbaa !33
  %102 = load ptr, ptr %15, align 8, !tbaa !71
  %103 = load i32, ptr %17, align 4, !tbaa !26
  %104 = sext i32 %103 to i64
  %105 = getelementptr inbounds ptr, ptr %102, i64 %104
  %106 = load ptr, ptr %105, align 8, !tbaa !43
  %107 = load i32, ptr %11, align 4, !tbaa !26
  %108 = load ptr, ptr %14, align 8, !tbaa !71
  %109 = load i32, ptr %16, align 4, !tbaa !26
  %110 = sext i32 %109 to i64
  %111 = getelementptr inbounds ptr, ptr %108, i64 %110
  %112 = load ptr, ptr %111, align 8, !tbaa !43
  %113 = load ptr, ptr %9, align 8, !tbaa !64
  %114 = getelementptr inbounds nuw %struct.FilterContext, ptr %113, i32 0, i32 0
  %115 = load ptr, ptr %114, align 8, !tbaa !66
  %116 = load ptr, ptr %9, align 8, !tbaa !64
  %117 = getelementptr inbounds nuw %struct.FilterContext, ptr %116, i32 0, i32 1
  %118 = load ptr, ptr %117, align 8, !tbaa !68
  %119 = load ptr, ptr %9, align 8, !tbaa !64
  %120 = getelementptr inbounds nuw %struct.FilterContext, ptr %119, i32 0, i32 2
  %121 = load i32, ptr %120, align 8, !tbaa !69
  call void %100(ptr noundef %101, ptr noundef %106, i32 noundef %107, ptr noundef %112, ptr noundef %115, ptr noundef %118, i32 noundef %121)
  br label %122

122:                                              ; preds = %97, %79
  %123 = load ptr, ptr %5, align 8, !tbaa !33
  %124 = getelementptr inbounds nuw %struct.SwsInternal, ptr %123, i32 0, i32 144
  %125 = load ptr, ptr %124, align 8, !tbaa !74
  %126 = icmp ne ptr %125, null
  br i1 %126, label %127, label %143

127:                                              ; preds = %122
  %128 = load ptr, ptr %5, align 8, !tbaa !33
  %129 = getelementptr inbounds nuw %struct.SwsInternal, ptr %128, i32 0, i32 144
  %130 = load ptr, ptr %129, align 8, !tbaa !74
  %131 = load ptr, ptr %15, align 8, !tbaa !71
  %132 = load i32, ptr %17, align 4, !tbaa !26
  %133 = sext i32 %132 to i64
  %134 = getelementptr inbounds ptr, ptr %131, i64 %133
  %135 = load ptr, ptr %134, align 8, !tbaa !43
  %136 = load i32, ptr %11, align 4, !tbaa !26
  %137 = load ptr, ptr %5, align 8, !tbaa !33
  %138 = getelementptr inbounds nuw %struct.SwsInternal, ptr %137, i32 0, i32 146
  %139 = load i32, ptr %138, align 8, !tbaa !75
  %140 = load ptr, ptr %5, align 8, !tbaa !33
  %141 = getelementptr inbounds nuw %struct.SwsInternal, ptr %140, i32 0, i32 148
  %142 = load i64, ptr %141, align 16, !tbaa !76
  call void %130(ptr noundef %135, i32 noundef %136, i32 noundef %139, i64 noundef %142)
  br label %143

143:                                              ; preds = %127, %122
  %144 = load ptr, ptr %6, align 8, !tbaa !4
  %145 = getelementptr inbounds nuw %struct.SwsFilterDescriptor, ptr %144, i32 0, i32 1
  %146 = load ptr, ptr %145, align 8, !tbaa !24
  %147 = getelementptr inbounds nuw %struct.SwsSlice, ptr %146, i32 0, i32 6
  %148 = getelementptr inbounds [4 x %struct.SwsPlane], ptr %147, i64 0, i64 0
  %149 = getelementptr inbounds nuw %struct.SwsPlane, ptr %148, i32 0, i32 2
  %150 = load i32, ptr %149, align 8, !tbaa !40
  %151 = add nsw i32 %150, 1
  store i32 %151, ptr %149, align 8, !tbaa !40
  %152 = load ptr, ptr %6, align 8, !tbaa !4
  %153 = getelementptr inbounds nuw %struct.SwsFilterDescriptor, ptr %152, i32 0, i32 2
  %154 = load i32, ptr %153, align 8, !tbaa !22
  %155 = icmp ne i32 %154, 0
  br i1 %155, label %156, label %249

156:                                              ; preds = %143
  %157 = load ptr, ptr %6, align 8, !tbaa !4
  %158 = getelementptr inbounds nuw %struct.SwsFilterDescriptor, ptr %157, i32 0, i32 0
  %159 = load ptr, ptr %158, align 8, !tbaa !23
  %160 = getelementptr inbounds nuw %struct.SwsSlice, ptr %159, i32 0, i32 6
  %161 = getelementptr inbounds [4 x %struct.SwsPlane], ptr %160, i64 0, i64 3
  %162 = getelementptr inbounds nuw %struct.SwsPlane, ptr %161, i32 0, i32 3
  %163 = load ptr, ptr %162, align 8, !tbaa !42
  store ptr %163, ptr %14, align 8, !tbaa !71
  %164 = load ptr, ptr %6, align 8, !tbaa !4
  %165 = getelementptr inbounds nuw %struct.SwsFilterDescriptor, ptr %164, i32 0, i32 1
  %166 = load ptr, ptr %165, align 8, !tbaa !24
  %167 = getelementptr inbounds nuw %struct.SwsSlice, ptr %166, i32 0, i32 6
  %168 = getelementptr inbounds [4 x %struct.SwsPlane], ptr %167, i64 0, i64 3
  %169 = getelementptr inbounds nuw %struct.SwsPlane, ptr %168, i32 0, i32 3
  %170 = load ptr, ptr %169, align 8, !tbaa !42
  store ptr %170, ptr %15, align 8, !tbaa !71
  %171 = load i32, ptr %7, align 4, !tbaa !26
  %172 = load i32, ptr %13, align 4, !tbaa !26
  %173 = add nsw i32 %171, %172
  %174 = load ptr, ptr %6, align 8, !tbaa !4
  %175 = getelementptr inbounds nuw %struct.SwsFilterDescriptor, ptr %174, i32 0, i32 0
  %176 = load ptr, ptr %175, align 8, !tbaa !23
  %177 = getelementptr inbounds nuw %struct.SwsSlice, ptr %176, i32 0, i32 6
  %178 = getelementptr inbounds [4 x %struct.SwsPlane], ptr %177, i64 0, i64 3
  %179 = getelementptr inbounds nuw %struct.SwsPlane, ptr %178, i32 0, i32 1
  %180 = load i32, ptr %179, align 4, !tbaa !36
  %181 = sub nsw i32 %173, %180
  store i32 %181, ptr %16, align 4, !tbaa !26
  %182 = load i32, ptr %7, align 4, !tbaa !26
  %183 = load i32, ptr %13, align 4, !tbaa !26
  %184 = add nsw i32 %182, %183
  %185 = load ptr, ptr %6, align 8, !tbaa !4
  %186 = getelementptr inbounds nuw %struct.SwsFilterDescriptor, ptr %185, i32 0, i32 1
  %187 = load ptr, ptr %186, align 8, !tbaa !24
  %188 = getelementptr inbounds nuw %struct.SwsSlice, ptr %187, i32 0, i32 6
  %189 = getelementptr inbounds [4 x %struct.SwsPlane], ptr %188, i64 0, i64 3
  %190 = getelementptr inbounds nuw %struct.SwsPlane, ptr %189, i32 0, i32 1
  %191 = load i32, ptr %190, align 4, !tbaa !36
  %192 = sub nsw i32 %184, %191
  store i32 %192, ptr %17, align 4, !tbaa !26
  %193 = load ptr, ptr %6, align 8, !tbaa !4
  %194 = getelementptr inbounds nuw %struct.SwsFilterDescriptor, ptr %193, i32 0, i32 1
  %195 = load ptr, ptr %194, align 8, !tbaa !24
  %196 = getelementptr inbounds nuw %struct.SwsSlice, ptr %195, i32 0, i32 6
  %197 = getelementptr inbounds [4 x %struct.SwsPlane], ptr %196, i64 0, i64 3
  %198 = getelementptr inbounds nuw %struct.SwsPlane, ptr %197, i32 0, i32 2
  %199 = load i32, ptr %198, align 8, !tbaa !40
  %200 = add nsw i32 %199, 1
  store i32 %200, ptr %198, align 8, !tbaa !40
  %201 = load ptr, ptr %5, align 8, !tbaa !33
  %202 = getelementptr inbounds nuw %struct.SwsInternal, ptr %201, i32 0, i32 140
  %203 = load ptr, ptr %202, align 8, !tbaa !72
  %204 = icmp ne ptr %203, null
  br i1 %204, label %205, label %223

205:                                              ; preds = %156
  %206 = load ptr, ptr %5, align 8, !tbaa !33
  %207 = getelementptr inbounds nuw %struct.SwsInternal, ptr %206, i32 0, i32 140
  %208 = load ptr, ptr %207, align 8, !tbaa !72
  %209 = load ptr, ptr %5, align 8, !tbaa !33
  %210 = load ptr, ptr %15, align 8, !tbaa !71
  %211 = load i32, ptr %17, align 4, !tbaa !26
  %212 = sext i32 %211 to i64
  %213 = getelementptr inbounds ptr, ptr %210, i64 %212
  %214 = load ptr, ptr %213, align 8, !tbaa !43
  %215 = load i32, ptr %11, align 4, !tbaa !26
  %216 = load ptr, ptr %14, align 8, !tbaa !71
  %217 = load i32, ptr %16, align 4, !tbaa !26
  %218 = sext i32 %217 to i64
  %219 = getelementptr inbounds ptr, ptr %216, i64 %218
  %220 = load ptr, ptr %219, align 8, !tbaa !43
  %221 = load i32, ptr %10, align 4, !tbaa !26
  %222 = load i32, ptr %12, align 4, !tbaa !26
  call void %208(ptr noundef %209, ptr noundef %214, i32 noundef %215, ptr noundef %220, i32 noundef %221, i32 noundef %222)
  br label %248

223:                                              ; preds = %156
  %224 = load ptr, ptr %5, align 8, !tbaa !33
  %225 = getelementptr inbounds nuw %struct.SwsInternal, ptr %224, i32 0, i32 142
  %226 = load ptr, ptr %225, align 8, !tbaa !73
  %227 = load ptr, ptr %5, align 8, !tbaa !33
  %228 = load ptr, ptr %15, align 8, !tbaa !71
  %229 = load i32, ptr %17, align 4, !tbaa !26
  %230 = sext i32 %229 to i64
  %231 = getelementptr inbounds ptr, ptr %228, i64 %230
  %232 = load ptr, ptr %231, align 8, !tbaa !43
  %233 = load i32, ptr %11, align 4, !tbaa !26
  %234 = load ptr, ptr %14, align 8, !tbaa !71
  %235 = load i32, ptr %16, align 4, !tbaa !26
  %236 = sext i32 %235 to i64
  %237 = getelementptr inbounds ptr, ptr %234, i64 %236
  %238 = load ptr, ptr %237, align 8, !tbaa !43
  %239 = load ptr, ptr %9, align 8, !tbaa !64
  %240 = getelementptr inbounds nuw %struct.FilterContext, ptr %239, i32 0, i32 0
  %241 = load ptr, ptr %240, align 8, !tbaa !66
  %242 = load ptr, ptr %9, align 8, !tbaa !64
  %243 = getelementptr inbounds nuw %struct.FilterContext, ptr %242, i32 0, i32 1
  %244 = load ptr, ptr %243, align 8, !tbaa !68
  %245 = load ptr, ptr %9, align 8, !tbaa !64
  %246 = getelementptr inbounds nuw %struct.FilterContext, ptr %245, i32 0, i32 2
  %247 = load i32, ptr %246, align 8, !tbaa !69
  call void %226(ptr noundef %227, ptr noundef %232, i32 noundef %233, ptr noundef %238, ptr noundef %241, ptr noundef %244, i32 noundef %247)
  br label %248

248:                                              ; preds = %223, %205
  br label %249

249:                                              ; preds = %248, %143
  call void @llvm.lifetime.end.p0(i64 4, ptr %17) #6
  call void @llvm.lifetime.end.p0(i64 4, ptr %16) #6
  call void @llvm.lifetime.end.p0(i64 8, ptr %15) #6
  call void @llvm.lifetime.end.p0(i64 8, ptr %14) #6
  br label %250

250:                                              ; preds = %249
  %251 = load i32, ptr %13, align 4, !tbaa !26
  %252 = add nsw i32 %251, 1
  store i32 %252, ptr %13, align 4, !tbaa !26
  br label %34, !llvm.loop !77

253:                                              ; preds = %34
  %254 = load i32, ptr %8, align 4, !tbaa !26
  call void @llvm.lifetime.end.p0(i64 4, ptr %13) #6
  call void @llvm.lifetime.end.p0(i64 4, ptr %12) #6
  call void @llvm.lifetime.end.p0(i64 4, ptr %11) #6
  call void @llvm.lifetime.end.p0(i64 4, ptr %10) #6
  call void @llvm.lifetime.end.p0(i64 8, ptr %9) #6
  ret i32 %254
}