; Function Attrs: nounwind uwtable
define internal noundef i32 @lum_h_scale(ptr noundef %0, ptr noundef readonly captures(none) %1, i32 noundef %2, i32 noundef returned %3) #0 {
  %5 = getelementptr inbounds nuw i8, ptr %1, i64 24
  %6 = load ptr, ptr %5, align 8, !tbaa !10
  %7 = load ptr, ptr %1, align 8, !tbaa !21
  %8 = load i32, ptr %7, align 8, !tbaa !24
  %9 = getelementptr inbounds nuw i8, ptr %1, i64 8
  %10 = load ptr, ptr %9, align 8, !tbaa !22
  %11 = load i32, ptr %10, align 8, !tbaa !24
  %12 = getelementptr inbounds nuw i8, ptr %6, i64 20
  %13 = load i32, ptr %12, align 4, !tbaa !57
  %14 = icmp sgt i32 %3, 0
  br i1 %14, label %.lr.ph, label %._crit_edge

.lr.ph:                                           ; preds = %4
  %15 = getelementptr inbounds nuw i8, ptr %0, i64 53080
  %16 = getelementptr inbounds nuw i8, ptr %0, i64 53096
  %17 = getelementptr inbounds nuw i8, ptr %6, i64 8
  %18 = getelementptr inbounds nuw i8, ptr %6, i64 16
  %19 = getelementptr inbounds nuw i8, ptr %0, i64 53112
  %20 = getelementptr inbounds nuw i8, ptr %0, i64 53128
  %21 = getelementptr inbounds nuw i8, ptr %0, i64 53136
  %22 = getelementptr inbounds nuw i8, ptr %1, i64 16
  br label %23

23:                                               ; preds = %.lr.ph, %104
  %.080 = phi i32 [ 0, %.lr.ph ], [ %105, %104 ]
  %24 = load ptr, ptr %1, align 8, !tbaa !21
  %25 = getelementptr inbounds nuw i8, ptr %24, i64 40
  %26 = load ptr, ptr %25, align 8, !tbaa !31
  %27 = load ptr, ptr %9, align 8, !tbaa !22
  %28 = getelementptr inbounds nuw i8, ptr %27, i64 40
  %29 = load ptr, ptr %28, align 8, !tbaa !31
  %30 = add nsw i32 %.080, %2
  %31 = getelementptr inbounds nuw i8, ptr %24, i64 28
  %32 = load i32, ptr %31, align 4, !tbaa !25
  %33 = sub nsw i32 %30, %32
  %34 = getelementptr inbounds nuw i8, ptr %27, i64 28
  %35 = load i32, ptr %34, align 4, !tbaa !25
  %36 = sub nsw i32 %30, %35
  %37 = load ptr, ptr %15, align 8, !tbaa !58
  %.not = icmp eq ptr %37, null
  br i1 %.not, label %45, label %38

38:                                               ; preds = %23
  %39 = sext i32 %36 to i64
  %40 = getelementptr inbounds ptr, ptr %29, i64 %39
  %41 = load ptr, ptr %40, align 8, !tbaa !32
  %42 = sext i32 %33 to i64
  %43 = getelementptr inbounds ptr, ptr %26, i64 %42
  %44 = load ptr, ptr %43, align 8, !tbaa !32
  tail call void %37(ptr noundef nonnull %0, ptr noundef %41, i32 noundef %11, ptr noundef %44, i32 noundef %8, i32 noundef %13) #6
  br label %56

45:                                               ; preds = %23
  %46 = load ptr, ptr %16, align 8, !tbaa !59
  %47 = sext i32 %36 to i64
  %48 = getelementptr inbounds ptr, ptr %29, i64 %47
  %49 = load ptr, ptr %48, align 8, !tbaa !32
  %50 = sext i32 %33 to i64
  %51 = getelementptr inbounds ptr, ptr %26, i64 %50
  %52 = load ptr, ptr %51, align 8, !tbaa !32
  %53 = load ptr, ptr %6, align 8, !tbaa !53
  %54 = load ptr, ptr %17, align 8, !tbaa !55
  %55 = load i32, ptr %18, align 8, !tbaa !56
  tail call void %46(ptr noundef nonnull %0, ptr noundef %49, i32 noundef %11, ptr noundef %52, ptr noundef %53, ptr noundef %54, i32 noundef %55) #6
  br label %56

56:                                               ; preds = %45, %38
  %57 = load ptr, ptr %19, align 8, !tbaa !60
  %.not77 = icmp eq ptr %57, null
  br i1 %.not77, label %64, label %58

58:                                               ; preds = %56
  %59 = sext i32 %36 to i64
  %60 = getelementptr inbounds ptr, ptr %29, i64 %59
  %61 = load ptr, ptr %60, align 8, !tbaa !32
  %62 = load i32, ptr %20, align 8, !tbaa !61
  %63 = load i64, ptr %21, align 16, !tbaa !62
  tail call void %57(ptr noundef %61, i32 noundef %11, i32 noundef %62, i64 noundef %63) #6
  br label %64

64:                                               ; preds = %58, %56
  %65 = load ptr, ptr %9, align 8, !tbaa !22
  %66 = getelementptr inbounds nuw i8, ptr %65, i64 32
  %67 = load i32, ptr %66, align 8, !tbaa !29
  %68 = add nsw i32 %67, 1
  store i32 %68, ptr %66, align 8, !tbaa !29
  %69 = load i32, ptr %22, align 8, !tbaa !20
  %.not78 = icmp eq i32 %69, 0
  br i1 %.not78, label %104, label %70

70:                                               ; preds = %64
  %71 = load ptr, ptr %1, align 8, !tbaa !21
  %72 = getelementptr inbounds nuw i8, ptr %71, i64 136
  %73 = load ptr, ptr %72, align 8, !tbaa !31
  %74 = getelementptr inbounds nuw i8, ptr %65, i64 136
  %75 = load ptr, ptr %74, align 8, !tbaa !31
  %76 = getelementptr inbounds nuw i8, ptr %71, i64 124
  %77 = load i32, ptr %76, align 4, !tbaa !25
  %78 = sub nsw i32 %30, %77
  %79 = getelementptr inbounds nuw i8, ptr %65, i64 124
  %80 = load i32, ptr %79, align 4, !tbaa !25
  %81 = sub nsw i32 %30, %80
  %82 = getelementptr inbounds nuw i8, ptr %65, i64 128
  %83 = load i32, ptr %82, align 8, !tbaa !29
  %84 = add nsw i32 %83, 1
  store i32 %84, ptr %82, align 8, !tbaa !29
  %85 = load ptr, ptr %15, align 8, !tbaa !58
  %.not79 = icmp eq ptr %85, null
  br i1 %.not79, label %93, label %86

86:                                               ; preds = %70
  %87 = sext i32 %81 to i64
  %88 = getelementptr inbounds ptr, ptr %75, i64 %87
  %89 = load ptr, ptr %88, align 8, !tbaa !32
  %90 = sext i32 %78 to i64
  %91 = getelementptr inbounds ptr, ptr %73, i64 %90
  %92 = load ptr, ptr %91, align 8, !tbaa !32
  tail call void %85(ptr noundef nonnull %0, ptr noundef %89, i32 noundef %11, ptr noundef %92, i32 noundef %8, i32 noundef %13) #6
  br label %104

93:                                               ; preds = %70
  %94 = load ptr, ptr %16, align 8, !tbaa !59
  %95 = sext i32 %81 to i64
  %96 = getelementptr inbounds ptr, ptr %75, i64 %95
  %97 = load ptr, ptr %96, align 8, !tbaa !32
  %98 = sext i32 %78 to i64
  %99 = getelementptr inbounds ptr, ptr %73, i64 %98
  %100 = load ptr, ptr %99, align 8, !tbaa !32
  %101 = load ptr, ptr %6, align 8, !tbaa !53
  %102 = load ptr, ptr %17, align 8, !tbaa !55
  %103 = load i32, ptr %18, align 8, !tbaa !56
  tail call void %94(ptr noundef nonnull %0, ptr noundef %97, i32 noundef %11, ptr noundef %100, ptr noundef %101, ptr noundef %102, i32 noundef %103) #6
  br label %104

104:                                              ; preds = %86, %93, %64
  %105 = add nuw nsw i32 %.080, 1
  %exitcond.not = icmp eq i32 %105, %3
  br i1 %exitcond.not, label %._crit_edge, label %23, !llvm.loop !63

._crit_edge:                                      ; preds = %104, %4
  ret i32 %3
}